target datalayout = "e-m:e-p270:32:32-p271:32:32-p272:64:64-i64:64-i128:128-f80:128-n8:16:32:64-S128"
target triple = "x86_64-pc-linux-gnu"

%"struct.casadi::PluginInterface<casadi::ImporterInternal>::Plugin" = type { ptr, ptr, ptr, i32, %"struct.casadi::ImporterInternal::Exposed", ptr, ptr }
%"struct.casadi::ImporterInternal::Exposed" = type { i8 }

@.str = private unnamed_addr constant [5 x i8] c"none\00", align 1
@.str.1 = private unnamed_addr constant [4 x i8] c"dll\00", align 1

; Function Attrs: mustprogress uwtable
define noundef ptr @_ZN6casadi8ImporterptEv(ptr noundef nonnull align 8 dereferenceable(8) %0) #4 align 2 {
  %2 = alloca ptr, align 8
  store ptr %0, ptr %2, align 8
  %3 = load ptr, ptr %2, align 8
  %4 = call noundef ptr @_ZNK6casadi12SharedObjectptEv(ptr noundef nonnull align 8 dereferenceable(8) %3)
  ret ptr %4
}

; Function Attrs: mustprogress nounwind uwtable
define linkonce_odr noundef zeroext i1 @_ZSteqIcSt11char_traitsIcESaIcEEbRKNSt7__cxx1112basic_stringIT_T0_T1_EEPKS5_(ptr noundef nonnull align 8 dereferenceable(32) %0, ptr noundef %1) #5 comdat {
  %3 = alloca ptr, align 8
  %4 = alloca ptr, align 8
  store ptr %0, ptr %3, align 8
  store ptr %1, ptr %4, align 8
  %5 = load ptr, ptr %3, align 8
  %6 = load ptr, ptr %4, align 8
  %7 = call noundef i32 @_ZNKSt7__cxx1112basic_stringIcSt11char_traitsIcESaIcEE7compareEPKc(ptr noundef nonnull align 8 dereferenceable(32) %5, ptr noundef %6) #3
  %8 = icmp eq i32 %7, 0
  ret i1 %8
}

; Function Attrs: mustprogress uwtable
define void @_ZN6casadi8ImporterC2ERKNSt7__cxx1112basic_stringIcSt11char_traitsIcESaIcEEES8_RKSt3mapIS6_NS_11GenericTypeESt4lessIS6_ESaISt4pairIS7_SA_EEE(ptr noundef nonnull align 8 dereferenceable(8) %0, ptr noundef nonnull align 8 dereferenceable(32) %1, ptr noundef nonnull align 8 dereferenceable(32) %2, ptr noundef nonnull align 8 dereferenceable(48) %3) unnamed_addr #4 align 2 personality ptr @__gxx_personality_v0 {
  %5 = alloca ptr, align 8
  %6 = alloca ptr, align 8
  %7 = alloca ptr, align 8
  %8 = alloca ptr, align 8
  %9 = alloca ptr, align 8
  %10 = alloca i32, align 4
  store ptr %0, ptr %5, align 8
  store ptr %1, ptr %6, align 8
  store ptr %2, ptr %7, align 8
  store ptr %3, ptr %8, align 8
  %11 = load ptr, ptr %5, align 8
  call void @_ZN6casadi12SharedObjectC2Ev(ptr noundef nonnull align 8 dereferenceable(8) %11)
  %12 = load ptr, ptr %7, align 8
  %13 = invoke noundef zeroext i1 @_ZSteqIcSt11char_traitsIcESaIcEEbRKNSt7__cxx1112basic_stringIT_T0_T1_EEPKS5_(ptr noundef nonnull align 8 dereferenceable(32) %12, ptr noundef @.str)
          to label %14 unwind label %21

14:                                               ; preds = %4
  br i1 %13, label %15, label %29

15:                                               ; preds = %14
  %16 = invoke noalias noundef nonnull ptr @_Znwm(i64 noundef 168) #16
          to label %17 unwind label %21

17:                                               ; preds = %15
  %18 = load ptr, ptr %6, align 8
  invoke void @_ZN6casadi16ImporterInternalC1ERKNSt7__cxx1112basic_stringIcSt11char_traitsIcESaIcEEE(ptr noundef nonnull align 8 dereferenceable(161) %16, ptr noundef nonnull align 8 dereferenceable(32) %18)
          to label %19 unwind label %25

19:                                               ; preds = %17
  invoke void @_ZN6casadi12SharedObject3ownEPNS_20SharedObjectInternalE(ptr noundef nonnull align 8 dereferenceable(8) %11, ptr noundef %16)
          to label %20 unwind label %21

20:                                               ; preds = %19
  br label %54

21:                                               ; preds = %56, %54, %51, %46, %43, %37, %33, %29, %19, %15, %4
  %22 = landingpad { ptr, i32 }
          cleanup
  %23 = extractvalue { ptr, i32 } %22, 0
  store ptr %23, ptr %9, align 8
  %24 = extractvalue { ptr, i32 } %22, 1
  store i32 %24, ptr %10, align 4
  br label %59

25:                                               ; preds = %17
  %26 = landingpad { ptr, i32 }
          cleanup
  %27 = extractvalue { ptr, i32 } %26, 0
  store ptr %27, ptr %9, align 8
  %28 = extractvalue { ptr, i32 } %26, 1
  store i32 %28, ptr %10, align 4
  call void @_ZdlPv(ptr noundef %16) #17
  br label %59

29:                                               ; preds = %14
  %30 = load ptr, ptr %7, align 8
  %31 = invoke noundef zeroext i1 @_ZSteqIcSt11char_traitsIcESaIcEEbRKNSt7__cxx1112basic_stringIT_T0_T1_EEPKS5_(ptr noundef nonnull align 8 dereferenceable(32) %30, ptr noundef @.str.1)
          to label %32 unwind label %21

32:                                               ; preds = %29
  br i1 %31, label %33, label %43

33:                                               ; preds = %32
  %34 = invoke noalias noundef nonnull ptr @_Znwm(i64 noundef 176) #16
          to label %35 unwind label %21

35:                                               ; preds = %33
  %36 = load ptr, ptr %6, align 8
  invoke void @_ZN6casadi10DllLibraryC1ERKNSt7__cxx1112basic_stringIcSt11char_traitsIcESaIcEEE(ptr noundef nonnull align 8 dereferenceable(176) %34, ptr noundef nonnull align 8 dereferenceable(32) %36)
          to label %37 unwind label %39

37:                                               ; preds = %35
  invoke void @_ZN6casadi12SharedObject3ownEPNS_20SharedObjectInternalE(ptr noundef nonnull align 8 dereferenceable(8) %11, ptr noundef %34)
          to label %38 unwind label %21

38:                                               ; preds = %37
  br label %53

39:                                               ; preds = %35
  %40 = landingpad { ptr, i32 }
          cleanup
  %41 = extractvalue { ptr, i32 } %40, 0
  store ptr %41, ptr %9, align 8
  %42 = extractvalue { ptr, i32 } %40, 1
  store i32 %42, ptr %10, align 4
  call void @_ZdlPv(ptr noundef %34) #17
  br label %59

43:                                               ; preds = %32
  %44 = load ptr, ptr %7, align 8
  %45 = invoke noundef nonnull align 8 dereferenceable(48) ptr @_ZN6casadi15PluginInterfaceINS_16ImporterInternalEE9getPluginERKNSt7__cxx1112basic_stringIcSt11char_traitsIcESaIcEEE(ptr noundef nonnull align 8 dereferenceable(32) %44)
          to label %46 unwind label %21

46:                                               ; preds = %43
  %47 = getelementptr inbounds %"struct.casadi::PluginInterface<casadi::ImporterInternal>::Plugin", ptr %45, i32 0, i32 0
  %48 = load ptr, ptr %47, align 8
  %49 = load ptr, ptr %6, align 8
  %50 = invoke noundef ptr %48(ptr noundef nonnull align 8 dereferenceable(32) %49)
          to label %51 unwind label %21

51:                                               ; preds = %46
  invoke void @_ZN6casadi12SharedObject3ownEPNS_20SharedObjectInternalE(ptr noundef nonnull align 8 dereferenceable(8) %11, ptr noundef %50)
          to label %52 unwind label %21

52:                                               ; preds = %51
  br label %53

53:                                               ; preds = %52, %38
  br label %54

54:                                               ; preds = %53, %20
  %55 = invoke noundef ptr @_ZN6casadi8ImporterptEv(ptr noundef nonnull align 8 dereferenceable(8) %11)
          to label %56 unwind label %21

56:                                               ; preds = %54
  %57 = load ptr, ptr %8, align 8
  invoke void @_ZN6casadi16ImporterInternal9constructERKSt3mapINSt7__cxx1112basic_stringIcSt11char_traitsIcESaIcEEENS_11GenericTypeESt4lessIS7_ESaISt4pairIKS7_S8_EEE(ptr noundef nonnull align 8 dereferenceable(161) %55, ptr noundef nonnull align 8 dereferenceable(48) %57)
          to label %58 unwind label %21

58:                                               ; preds = %56
  ret void

59:                                               ; preds = %39, %25, %21
  call void @_ZN6casadi12SharedObjectD2Ev(ptr noundef nonnull align 8 dereferenceable(8) %11) #3
  br label %60

60:                                               ; preds = %59
  %61 = load ptr, ptr %9, align 8
  %62 = load i32, ptr %10, align 4
  %63 = insertvalue { ptr, i32 } poison, ptr %61, 0
  %64 = insertvalue { ptr, i32 } %63, i32 %62, 1
  resume { ptr, i32 } %64
}